; Function Attrs: nounwind uwtable
define zeroext range(i8 0, 2) i8 @l_Lean_Elab_Mutual_addPreDefsFromUnary___lambda__1(ptr noundef readonly captures(none) %0) local_unnamed_addr #0 {
  %2 = getelementptr inbounds nuw i8, ptr %0, i64 8
  %3 = load ptr, ptr %2, align 8, !tbaa !4
  %4 = load ptr, ptr @l_Lean_Elab_Mutual_addPreDefsFromUnary___lambda__1___closed__2, align 8, !tbaa !4
  %5 = tail call zeroext i8 @lean_name_eq(ptr noundef %3, ptr noundef %4) #4
  %6 = icmp eq i8 %5, 0
  %. = zext i1 %6 to i8
  ret i8 %.
}